; Function Attrs: nounwind uwtable
define noundef nonnull ptr @l_Array_anyMUnsafe_any___at_Lean_Elab_Term_elabClear___spec__16___boxed(ptr noundef %0, ptr noundef %1, ptr noundef %2, ptr noundef %3) local_unnamed_addr #0 {
  %5 = getelementptr i8, ptr %2, i64 8
  %.val20 = load i64, ptr %5, align 8, !tbaa !11
  %6 = ptrtoint ptr %2 to i64
  %7 = and i64 %6, 1
  %.not = icmp eq i64 %7, 0
  br i1 %.not, label %8, label %lean_dec.exit13

8:                                                ; preds = %4
  %9 = load i32, ptr %2, align 4, !tbaa !8
  %10 = icmp sgt i32 %9, 1
  br i1 %10, label %11, label %13, !prof !15

11:                                               ; preds = %8
  %12 = add nsw i32 %9, -1
  store i32 %12, ptr %2, align 4, !tbaa !8
  br label %lean_dec.exit13

13:                                               ; preds = %8
  %.not.i = icmp eq i32 %9, 0
  br i1 %.not.i, label %lean_dec.exit13, label %14

14:                                               ; preds = %13
  tail call void @lean_dec_ref_cold(ptr noundef nonnull %2) #6
  br label %lean_dec.exit13

lean_dec.exit13:                                  ; preds = %14, %13, %11, %4
  %15 = getelementptr i8, ptr %3, i64 8
  %.val = load i64, ptr %15, align 8, !tbaa !11
  %16 = ptrtoint ptr %3 to i64
  %17 = and i64 %16, 1
  %.not22 = icmp eq i64 %17, 0
  br i1 %.not22, label %18, label %lean_dec.exit12

18:                                               ; preds = %lean_dec.exit13
  %19 = load i32, ptr %3, align 4, !tbaa !8
  %20 = icmp sgt i32 %19, 1
  br i1 %20, label %21, label %23, !prof !15

21:                                               ; preds = %18
  %22 = add nsw i32 %19, -1
  store i32 %22, ptr %3, align 4, !tbaa !8
  br label %lean_dec.exit12

23:                                               ; preds = %18
  %.not.i14 = icmp eq i32 %19, 0
  br i1 %.not.i14, label %lean_dec.exit12, label %24

24:                                               ; preds = %23
  tail call void @lean_dec_ref_cold(ptr noundef nonnull %3) #6
  br label %lean_dec.exit12

lean_dec.exit12:                                  ; preds = %24, %23, %21, %lean_dec.exit13
  %.not27.i = icmp eq i64 %.val20, %.val
  br i1 %.not27.i, label %l_Array_anyMUnsafe_any___at_Lean_Elab_Term_elabClear___spec__16.exit, label %.lr.ph.i

.lr.ph.i:                                         ; preds = %lean_dec.exit12
  %25 = getelementptr inbounds nuw i8, ptr %1, i64 24
  br label %28

26:                                               ; preds = %lean_dec.exit.i
  %27 = add i64 %.01528.i, 1
  %.not.i21 = icmp eq i64 %27, %.val
  br i1 %.not.i21, label %l_Array_anyMUnsafe_any___at_Lean_Elab_Term_elabClear___spec__16.exit, label %28

28:                                               ; preds = %26, %.lr.ph.i
  %.01528.i = phi i64 [ %.val20, %.lr.ph.i ], [ %27, %26 ]
  %29 = getelementptr inbounds nuw [0 x ptr], ptr %25, i64 0, i64 %.01528.i
  %30 = load ptr, ptr %29, align 8, !tbaa !4
  %31 = ptrtoint ptr %30 to i64
  %32 = and i64 %31, 1
  %.not.i20.i = icmp eq i64 %32, 0
  br i1 %.not.i20.i, label %33, label %lean_array_uget.exit.i

33:                                               ; preds = %28
  %.val.i.i.i = load i32, ptr %30, align 4, !tbaa !8
  %34 = icmp sgt i32 %.val.i.i.i, 0
  br i1 %34, label %35, label %37, !prof !15

35:                                               ; preds = %33
  %36 = add nuw i32 %.val.i.i.i, 1
  store i32 %36, ptr %30, align 4, !tbaa !8
  br label %40

37:                                               ; preds = %33
  %.not.i.i.i = icmp eq i32 %.val.i.i.i, 0
  br i1 %.not.i.i.i, label %40, label %38

38:                                               ; preds = %37
  tail call void @lean_inc_ref_cold(ptr noundef nonnull %30) #6
  br label %40

lean_array_uget.exit.i:                           ; preds = %28
  %39 = tail call zeroext i8 @l_Lean_PersistentArray_anyMAux___at_Lean_Elab_Term_elabClear___spec__15(ptr noundef %0, ptr noundef %30)
  br label %lean_dec.exit.i

40:                                               ; preds = %38, %37, %35
  %41 = tail call zeroext i8 @l_Lean_PersistentArray_anyMAux___at_Lean_Elab_Term_elabClear___spec__15(ptr noundef %0, ptr noundef nonnull %30)
  %42 = load i32, ptr %30, align 4, !tbaa !8
  %43 = icmp sgt i32 %42, 1
  br i1 %43, label %44, label %46, !prof !15

44:                                               ; preds = %40
  %45 = add nsw i32 %42, -1
  store i32 %45, ptr %30, align 4, !tbaa !8
  br label %lean_dec.exit.i

46:                                               ; preds = %40
  %.not.i.i = icmp eq i32 %42, 0
  br i1 %.not.i.i, label %lean_dec.exit.i, label %47

47:                                               ; preds = %46
  tail call void @lean_dec_ref_cold(ptr noundef nonnull %30) #6
  br label %lean_dec.exit.i

lean_dec.exit.i:                                  ; preds = %47, %46, %44, %lean_array_uget.exit.i
  %48 = phi i8 [ %39, %lean_array_uget.exit.i ], [ %41, %44 ], [ %41, %46 ], [ %41, %47 ]
  %49 = icmp eq i8 %48, 0
  br i1 %49, label %26, label %l_Array_anyMUnsafe_any___at_Lean_Elab_Term_elabClear___spec__16.exit

l_Array_anyMUnsafe_any___at_Lean_Elab_Term_elabClear___spec__16.exit: ; preds = %26, %lean_dec.exit.i, %lean_dec.exit12
  %.2.ph.i = phi i64 [ 1, %lean_dec.exit12 ], [ 1, %26 ], [ 3, %lean_dec.exit.i ]
  %50 = ptrtoint ptr %1 to i64
  %51 = and i64 %50, 1
  %.not23 = icmp eq i64 %51, 0
  br i1 %.not23, label %52, label %lean_dec.exit11

52:                                               ; preds = %l_Array_anyMUnsafe_any___at_Lean_Elab_Term_elabClear___spec__16.exit
  %53 = load i32, ptr %1, align 4, !tbaa !8
  %54 = icmp sgt i32 %53, 1
  br i1 %54, label %55, label %57, !prof !15

55:                                               ; preds = %52
  %56 = add nsw i32 %53, -1
  store i32 %56, ptr %1, align 4, !tbaa !8
  br label %lean_dec.exit11

57:                                               ; preds = %52
  %.not.i16 = icmp eq i32 %53, 0
  br i1 %.not.i16, label %lean_dec.exit11, label %58

58:                                               ; preds = %57
  tail call void @lean_dec_ref_cold(ptr noundef nonnull %1) #6
  br label %lean_dec.exit11

lean_dec.exit11:                                  ; preds = %58, %57, %55, %l_Array_anyMUnsafe_any___at_Lean_Elab_Term_elabClear___spec__16.exit
  %59 = ptrtoint ptr %0 to i64
  %60 = and i64 %59, 1
  %.not24 = icmp eq i64 %60, 0
  br i1 %.not24, label %61, label %lean_dec.exit

61:                                               ; preds = %lean_dec.exit11
  %62 = load i32, ptr %0, align 4, !tbaa !8
  %63 = icmp sgt i32 %62, 1
  br i1 %63, label %64, label %66, !prof !15

64:                                               ; preds = %61
  %65 = add nsw i32 %62, -1
  store i32 %65, ptr %0, align 4, !tbaa !8
  br label %lean_dec.exit

66:                                               ; preds = %61
  %.not.i18 = icmp eq i32 %62, 0
  br i1 %.not.i18, label %lean_dec.exit, label %67

67:                                               ; preds = %66
  tail call void @lean_dec_ref_cold(ptr noundef nonnull %0) #6
  br label %lean_dec.exit

lean_dec.exit:                                    ; preds = %67, %66, %64, %lean_dec.exit11
  %68 = inttoptr i64 %.2.ph.i to ptr
  ret ptr %68
}